target datalayout = "e-m:e-p270:32:32-p271:32:32-p272:64:64-i64:64-i128:128-f80:128-n8:16:32:64-S128"
target triple = "x86_64-pc-linux-gnu"

%struct.darktable_t = type { %struct.dt_codepath_t, i32, i32, ptr, ptr, ptr, ptr, ptr, ptr, ptr, ptr, ptr, ptr, ptr, ptr, ptr, ptr, ptr, ptr, ptr, ptr, ptr, ptr, ptr, ptr, ptr, ptr, ptr, ptr, ptr, [64 x %struct.dt_pthread_mutex_t], %struct.dt_pthread_mutex_t, %struct.dt_pthread_mutex_t, %struct.dt_pthread_mutex_t, %struct.dt_pthread_mutex_t, %struct.dt_pthread_mutex_t, ptr, ptr, ptr, ptr, ptr, ptr, ptr, ptr, ptr, ptr, ptr, ptr, ptr, %struct.dt_lua_state_t, ptr, double, ptr, i32, [47 x i32], i32, i32, ptr, ptr, %struct.dt_sys_resources_t, %struct.dt_backthumb_t, %struct.dt_gimp_t }
%struct.dt_codepath_t = type { i8, [3 x i8] }
%struct.dt_pthread_mutex_t = type { %union.pthread_mutex_t }
%union.pthread_mutex_t = type { %struct.__pthread_mutex_s }
%struct.__pthread_mutex_s = type { i32, i32, i32, i32, i32, i16, i16, %struct.__pthread_internal_list }
%struct.__pthread_internal_list = type { ptr, ptr }
%struct.dt_lua_state_t = type { i32 }
%struct.dt_sys_resources_t = type { i64, i64, ptr, ptr, i32 }
%struct.dt_backthumb_t = type { double, double, i32, i32, i32, i32 }
%struct.dt_gimp_t = type { i32, ptr, ptr, i32, i32 }
%struct.dt_iop_buffer_dsc_t = type { i32, i32, i32, [6 x [6 x i8]], %struct.anon, [12 x i8], %struct.anon.0, [4 x float], i32, [12 x i8] }
%struct.anon = type { i16, i16 }
%struct.anon.0 = type { i32, [12 x i8], [4 x float] }

@.str = private unnamed_addr constant [12 x i8] c"unreachable\00", align 1
@.str.1 = private unnamed_addr constant [118 x i8] c"generated/home/dtcxzyw/WorkSpace/Projects/compilers/llvm-opt-benchmark/bench/darktable/darktable/src/develop/format.c\00", align 1
@__FUNCTION__.dt_iop_buffer_dsc_to_bpp = private unnamed_addr constant [25 x i8] c"dt_iop_buffer_dsc_to_bpp\00", align 1
@darktable = external global %struct.darktable_t, align 8
@.str.3 = private unnamed_addr constant [104 x i8] c"[dt_unreachable_codepath] {%s} %s:%d (%s) - we should not be here. please report this to the developers\00", align 1

; Function Attrs: inlinehint nounwind uwtable
define internal void @dt_unreachable_codepath_with_caller(ptr noundef %0, ptr noundef %1, i32 noundef %2, ptr noundef %3) #2 {
  %5 = alloca ptr, align 8
  %6 = alloca ptr, align 8
  %7 = alloca i32, align 4
  %8 = alloca ptr, align 8
  store ptr %0, ptr %5, align 8, !tbaa !20
  store ptr %1, ptr %6, align 8, !tbaa !20
  store i32 %2, ptr %7, align 4, !tbaa !22
  store ptr %3, ptr %8, align 8, !tbaa !20
  br label %9

9:                                                ; preds = %4
  %10 = load i32, ptr getelementptr inbounds nuw (%struct.darktable_t, ptr @darktable, i32 0, i32 2), align 8, !tbaa !23
  %11 = xor i32 %10, -1
  %12 = and i32 0, %11
  %13 = icmp ne i32 %12, 0
  br i1 %13, label %19, label %14

14:                                               ; preds = %9
  %15 = load ptr, ptr %5, align 8, !tbaa !20
  %16 = load ptr, ptr %6, align 8, !tbaa !20
  %17 = load i32, ptr %7, align 4, !tbaa !22
  %18 = load ptr, ptr %8, align 8, !tbaa !20
  call void (ptr, ...) @dt_print_ext(ptr noundef @.str.3, ptr noundef %15, ptr noundef %16, i32 noundef %17, ptr noundef %18)
  br label %19

19:                                               ; preds = %14, %9
  br label %20

20:                                               ; preds = %19
  unreachable
}

; Function Attrs: nounwind uwtable
define i64 @dt_iop_buffer_dsc_to_bpp(ptr noundef %0) #0 {
  %2 = alloca ptr, align 8
  %3 = alloca i64, align 8
  store ptr %0, ptr %2, align 8, !tbaa !6
  call void @llvm.lifetime.start.p0(i64 8, ptr %3) #4
  %4 = load ptr, ptr %2, align 8, !tbaa !6
  %5 = getelementptr inbounds nuw %struct.dt_iop_buffer_dsc_t, ptr %4, i32 0, i32 0
  %6 = load i32, ptr %5, align 16, !tbaa !11
  %7 = zext i32 %6 to i64
  store i64 %7, ptr %3, align 8, !tbaa !17
  %8 = load ptr, ptr %2, align 8, !tbaa !6
  %9 = getelementptr inbounds nuw %struct.dt_iop_buffer_dsc_t, ptr %8, i32 0, i32 1
  %10 = load i32, ptr %9, align 4, !tbaa !19
  switch i32 %10, label %17 [
    i32 1, label %11
    i32 2, label %14
  ]

11:                                               ; preds = %1
  %12 = load i64, ptr %3, align 8, !tbaa !17
  %13 = mul i64 %12, 4
  store i64 %13, ptr %3, align 8, !tbaa !17
  br label %18

14:                                               ; preds = %1
  %15 = load i64, ptr %3, align 8, !tbaa !17
  %16 = mul i64 %15, 2
  store i64 %16, ptr %3, align 8, !tbaa !17
  br label %18

17:                                               ; preds = %1
  call void @dt_unreachable_codepath_with_caller(ptr noundef @.str, ptr noundef @.str.1, i32 noundef 35, ptr noundef @__FUNCTION__.dt_iop_buffer_dsc_to_bpp)
  br label %18

18:                                               ; preds = %17, %14, %11
  %19 = load i64, ptr %3, align 8, !tbaa !17
  call void @llvm.lifetime.end.p0(i64 8, ptr %3) #4
  ret i64 %19
}