; Function Attrs: nounwind uwtable
define range(i64 0, 17179869181) i64 @dt_iop_buffer_dsc_to_bpp(ptr noundef readonly captures(none) %0) local_unnamed_addr #0 {
  %2 = load i32, ptr %0, align 16, !tbaa !6
  %3 = getelementptr inbounds nuw i8, ptr %0, i64 4
  %4 = load i32, ptr %3, align 4, !tbaa !14
  switch i32 %4, label %6 [
    i32 1, label %7
    i32 2, label %5
  ]

5:                                                ; preds = %1
  br label %7

6:                                                ; preds = %1
  tail call void (ptr, ...) @dt_print_ext(ptr noundef nonnull @.str.3, ptr noundef nonnull @.str, ptr noundef nonnull @.str.1, i32 noundef 35, ptr noundef nonnull @__FUNCTION__.dt_iop_buffer_dsc_to_bpp) #2
  unreachable

7:                                                ; preds = %1, %5
  %.sink = phi i64 [ 1, %5 ], [ 2, %1 ]
  %8 = zext i32 %2 to i64
  %9 = shl nuw nsw i64 %8, %.sink
  ret i64 %9
}